target datalayout = "e-m:e-p270:32:32-p271:32:32-p272:64:64-i64:64-i128:128-f80:128-n8:16:32:64-S128"
target triple = "x86_64-pc-linux-gnu"

%struct.Wlc_Ntk_t_ = type { ptr, ptr, %struct.Vec_Int_t_, %struct.Vec_Int_t_, %struct.Vec_Int_t_, %struct.Vec_Int_t_, %struct.Vec_Int_t_, %struct.Vec_Int_t_, ptr, ptr, ptr, [60 x i32], [60 x i32], i32, i32, i32, i32, i32, ptr, i32, i32, ptr, ptr, ptr, ptr, ptr, %struct.Vec_Int_t_, %struct.Vec_Int_t_, i32, %struct.Vec_Int_t_, %struct.Vec_Int_t_, %struct.Vec_Int_t_, %struct.Vec_Int_t_, %struct.Vec_Int_t_, %struct.Vec_Int_t_ }
%struct.Vec_Int_t_ = type { i32, i32, ptr }

; Function Attrs: nounwind uwtable
define i32 @Wlc_NtkMemUsage(ptr noundef %0) #0 {
  %2 = alloca ptr, align 8
  %3 = alloca i32, align 4
  store ptr %0, ptr %2, align 8
  store i32 832, ptr %3, align 4
  %4 = load ptr, ptr %2, align 8
  %5 = getelementptr inbounds %struct.Wlc_Ntk_t_, ptr %4, i32 0, i32 2
  %6 = getelementptr inbounds %struct.Vec_Int_t_, ptr %5, i32 0, i32 0
  %7 = load i32, ptr %6, align 8
  %8 = mul nsw i32 4, %7
  %9 = load i32, ptr %3, align 4
  %10 = add nsw i32 %9, %8
  store i32 %10, ptr %3, align 4
  %11 = load ptr, ptr %2, align 8
  %12 = getelementptr inbounds %struct.Wlc_Ntk_t_, ptr %11, i32 0, i32 3
  %13 = getelementptr inbounds %struct.Vec_Int_t_, ptr %12, i32 0, i32 0
  %14 = load i32, ptr %13, align 8
  %15 = mul nsw i32 4, %14
  %16 = load i32, ptr %3, align 4
  %17 = add nsw i32 %16, %15
  store i32 %17, ptr %3, align 4
  %18 = load ptr, ptr %2, align 8
  %19 = getelementptr inbounds %struct.Wlc_Ntk_t_, ptr %18, i32 0, i32 4
  %20 = getelementptr inbounds %struct.Vec_Int_t_, ptr %19, i32 0, i32 0
  %21 = load i32, ptr %20, align 8
  %22 = mul nsw i32 4, %21
  %23 = load i32, ptr %3, align 4
  %24 = add nsw i32 %23, %22
  store i32 %24, ptr %3, align 4
  %25 = load ptr, ptr %2, align 8
  %26 = getelementptr inbounds %struct.Wlc_Ntk_t_, ptr %25, i32 0, i32 5
  %27 = getelementptr inbounds %struct.Vec_Int_t_, ptr %26, i32 0, i32 0
  %28 = load i32, ptr %27, align 8
  %29 = mul nsw i32 4, %28
  %30 = load i32, ptr %3, align 4
  %31 = add nsw i32 %30, %29
  store i32 %31, ptr %3, align 4
  %32 = load ptr, ptr %2, align 8
  %33 = getelementptr inbounds %struct.Wlc_Ntk_t_, ptr %32, i32 0, i32 6
  %34 = getelementptr inbounds %struct.Vec_Int_t_, ptr %33, i32 0, i32 0
  %35 = load i32, ptr %34, align 8
  %36 = mul nsw i32 4, %35
  %37 = load i32, ptr %3, align 4
  %38 = add nsw i32 %37, %36
  store i32 %38, ptr %3, align 4
  %39 = load ptr, ptr %2, align 8
  %40 = getelementptr inbounds %struct.Wlc_Ntk_t_, ptr %39, i32 0, i32 7
  %41 = getelementptr inbounds %struct.Vec_Int_t_, ptr %40, i32 0, i32 0
  %42 = load i32, ptr %41, align 8
  %43 = mul nsw i32 4, %42
  %44 = load i32, ptr %3, align 4
  %45 = add nsw i32 %44, %43
  store i32 %45, ptr %3, align 4
  %46 = load ptr, ptr %2, align 8
  %47 = getelementptr inbounds %struct.Wlc_Ntk_t_, ptr %46, i32 0, i32 20
  %48 = load i32, ptr %47, align 4
  %49 = sext i32 %48 to i64
  %50 = mul i64 24, %49
  %51 = load i32, ptr %3, align 4
  %52 = sext i32 %51 to i64
  %53 = add i64 %52, %50
  %54 = trunc i64 %53 to i32
  store i32 %54, ptr %3, align 4
  %55 = load ptr, ptr %2, align 8
  %56 = getelementptr inbounds %struct.Wlc_Ntk_t_, ptr %55, i32 0, i32 25
  %57 = load ptr, ptr %56, align 8
  %58 = call i32 @Abc_NamMemUsed(ptr noundef %57)
  %59 = load i32, ptr %3, align 4
  %60 = add nsw i32 %59, %58
  store i32 %60, ptr %3, align 4
  %61 = load ptr, ptr %2, align 8
  %62 = getelementptr inbounds %struct.Wlc_Ntk_t_, ptr %61, i32 0, i32 21
  %63 = load ptr, ptr %62, align 8
  %64 = call i32 @Mem_FlexReadMemUsage(ptr noundef %63)
  %65 = load i32, ptr %3, align 4
  %66 = add nsw i32 %65, %64
  store i32 %66, ptr %3, align 4
  %67 = load i32, ptr %3, align 4
  ret i32 %67
}