; Function Attrs: nounwind uwtable
define i32 @Wlc_NtkMemUsage(ptr noundef readonly captures(none) %0) local_unnamed_addr #3 {
  %2 = getelementptr inbounds nuw i8, ptr %0, i64 16
  %3 = load i32, ptr %2, align 8
  %4 = getelementptr inbounds nuw i8, ptr %0, i64 32
  %5 = load i32, ptr %4, align 8
  %6 = add i32 %5, %3
  %7 = getelementptr inbounds nuw i8, ptr %0, i64 48
  %8 = load i32, ptr %7, align 8
  %9 = add i32 %6, %8
  %10 = getelementptr inbounds nuw i8, ptr %0, i64 64
  %11 = load i32, ptr %10, align 8
  %12 = add i32 %9, %11
  %13 = getelementptr inbounds nuw i8, ptr %0, i64 80
  %14 = load i32, ptr %13, align 8
  %15 = add i32 %12, %14
  %16 = getelementptr inbounds nuw i8, ptr %0, i64 96
  %17 = load i32, ptr %16, align 8
  %18 = add i32 %15, %17
  %19 = shl i32 %18, 2
  %20 = add i32 %19, 832
  %21 = getelementptr inbounds nuw i8, ptr %0, i64 652
  %22 = load i32, ptr %21, align 4
  %23 = mul i32 %22, 24
  %24 = add i32 %20, %23
  %25 = getelementptr inbounds nuw i8, ptr %0, i64 688
  %26 = load ptr, ptr %25, align 8
  %27 = tail call i32 @Abc_NamMemUsed(ptr noundef %26) #25
  %28 = add nsw i32 %24, %27
  %29 = getelementptr inbounds nuw i8, ptr %0, i64 656
  %30 = load ptr, ptr %29, align 8
  %31 = tail call i32 @Mem_FlexReadMemUsage(ptr noundef %30) #25
  %32 = add nsw i32 %28, %31
  ret i32 %32
}